target datalayout = "e-m:e-p270:32:32-p271:32:32-p272:64:64-i64:64-i128:128-f80:128-n8:16:32:64-S128"
target triple = "x86_64-unknown-linux-gnu"

%"class.QuantLib::GaussianOrthogonalPolynomial" = type { ptr }
%"class.QuantLib::GaussJacobiPolynomial" = type { %"class.QuantLib::GaussianOrthogonalPolynomial", double, double }
%"class.QuantLib::GaussChebyshevPolynomial" = type { %"class.QuantLib::GaussJacobiPolynomial" }
%class.anon.3 = type { %"class.QuantLib::GaussChebyshevPolynomial", i64 }

@_ZTVN8QuantLib21GaussJacobiPolynomialE = external unnamed_addr constant { [8 x ptr] }, align 8
@"_ZTIZN8QuantLib14LsmBasisSystem15pathBasisSystemEmNS0_14PolynomialTypeEE3$_4" = internal constant { ptr, ptr } { ptr getelementptr inbounds (ptr, ptr @_ZTVN10__cxxabiv117__class_type_infoE, i64 2), ptr @"_ZTSZN8QuantLib14LsmBasisSystem15pathBasisSystemEmNS0_14PolynomialTypeEE3$_4" }, align 8

; Function Attrs: inlinehint mustprogress nounwind uwtable
define linkonce_odr void @_ZN8QuantLib28GaussianOrthogonalPolynomialC2ERKS0_(ptr noundef nonnull align 8 dereferenceable(8) %this, ptr noundef nonnull align 8 dereferenceable(8) %0) unnamed_addr #4 comdat align 2 {
entry:
  %this.addr = alloca ptr, align 8
  %.addr = alloca ptr, align 8
  store ptr %this, ptr %this.addr, align 8, !tbaa !32
  store ptr %0, ptr %.addr, align 8, !tbaa !32
  %this1 = load ptr, ptr %this.addr, align 8
  store ptr getelementptr inbounds inrange(-16, 48) ({ [8 x ptr] }, ptr @_ZTVN8QuantLib28GaussianOrthogonalPolynomialE, i32 0, i32 0, i32 2), ptr %this1, align 8, !tbaa !38
  ret void
}

; Function Attrs: inlinehint mustprogress nounwind uwtable
define linkonce_odr void @_ZN8QuantLib21GaussJacobiPolynomialC2ERKS0_(ptr noundef nonnull align 8 dereferenceable(24) %this, ptr noundef nonnull align 8 dereferenceable(24) %0) unnamed_addr #4 comdat align 2 {
entry:
  %this.addr = alloca ptr, align 8
  %.addr = alloca ptr, align 8
  store ptr %this, ptr %this.addr, align 8, !tbaa !32
  store ptr %0, ptr %.addr, align 8, !tbaa !32
  %this1 = load ptr, ptr %this.addr, align 8
  %1 = load ptr, ptr %.addr, align 8, !tbaa !32
  call void @_ZN8QuantLib28GaussianOrthogonalPolynomialC2ERKS0_(ptr noundef nonnull align 8 dereferenceable(8) %this1, ptr noundef nonnull align 8 dereferenceable(8) %1) #17
  store ptr getelementptr inbounds inrange(-16, 48) ({ [8 x ptr] }, ptr @_ZTVN8QuantLib21GaussJacobiPolynomialE, i32 0, i32 0, i32 2), ptr %this1, align 8, !tbaa !38
  %alpha_ = getelementptr inbounds nuw %"class.QuantLib::GaussJacobiPolynomial", ptr %this1, i32 0, i32 1
  %2 = load ptr, ptr %.addr, align 8
  %alpha_2 = getelementptr inbounds nuw %"class.QuantLib::GaussJacobiPolynomial", ptr %2, i32 0, i32 1
  call void @llvm.memcpy.p0.p0.i64(ptr align 8 %alpha_, ptr align 8 %alpha_2, i64 16, i1 false)
  ret void
}

; Function Attrs: inlinehint mustprogress nounwind uwtable
define linkonce_odr void @_ZN8QuantLib24GaussChebyshevPolynomialC2ERKS0_(ptr noundef nonnull align 8 dereferenceable(24) %this, ptr noundef nonnull align 8 dereferenceable(24) %0) unnamed_addr #4 comdat align 2 {
entry:
  %this.addr = alloca ptr, align 8
  %.addr = alloca ptr, align 8
  store ptr %this, ptr %this.addr, align 8, !tbaa !32
  store ptr %0, ptr %.addr, align 8, !tbaa !32
  %this1 = load ptr, ptr %this.addr, align 8
  %1 = load ptr, ptr %.addr, align 8, !tbaa !32
  call void @_ZN8QuantLib21GaussJacobiPolynomialC2ERKS0_(ptr noundef nonnull align 8 dereferenceable(24) %this1, ptr noundef nonnull align 8 dereferenceable(24) %1) #17
  store ptr getelementptr inbounds inrange(-16, 48) ({ [8 x ptr] }, ptr @_ZTVN8QuantLib24GaussChebyshevPolynomialE, i32 0, i32 0, i32 2), ptr %this1, align 8, !tbaa !38
  ret void
}

; Function Attrs: mustprogress nounwind uwtable
define linkonce_odr void @_ZN8QuantLib28GaussianOrthogonalPolynomialD2Ev(ptr noundef nonnull align 8 dereferenceable(8) %this) unnamed_addr #2 comdat align 2 {
entry:
  %this.addr = alloca ptr, align 8
  store ptr %this, ptr %this.addr, align 8, !tbaa !32
  ret void
}

; Function Attrs: inlinehint mustprogress nounwind uwtable
define internal void @"_ZZN8QuantLib14LsmBasisSystem15pathBasisSystemEmNS0_14PolynomialTypeEEN3$_4C2ERKS2_"(ptr noundef nonnull align 8 dereferenceable(32) %this, ptr noundef nonnull align 8 dereferenceable(32) %0) unnamed_addr #4 align 2 {
entry:
  %this.addr = alloca ptr, align 8
  %.addr = alloca ptr, align 8
  store ptr %this, ptr %this.addr, align 8, !tbaa !32
  store ptr %0, ptr %.addr, align 8, !tbaa !32
  %this1 = load ptr, ptr %this.addr, align 8
  %1 = getelementptr inbounds nuw %class.anon.3, ptr %this1, i32 0, i32 0
  %2 = load ptr, ptr %.addr, align 8, !tbaa !32
  %3 = getelementptr inbounds nuw %class.anon.3, ptr %2, i32 0, i32 0
  call void @_ZN8QuantLib24GaussChebyshevPolynomialC2ERKS0_(ptr noundef nonnull align 8 dereferenceable(24) %1, ptr noundef nonnull align 8 dereferenceable(24) %3) #17
  %4 = getelementptr inbounds nuw %class.anon.3, ptr %this1, i32 0, i32 1
  %5 = load ptr, ptr %.addr, align 8, !tbaa !32
  %6 = getelementptr inbounds nuw %class.anon.3, ptr %5, i32 0, i32 1
  %7 = load i64, ptr %6, align 8, !tbaa !24
  store i64 %7, ptr %4, align 8, !tbaa !24
  ret void
}

; Function Attrs: inlinehint mustprogress nounwind uwtable
define internal void @"_ZZN8QuantLib14LsmBasisSystem15pathBasisSystemEmNS0_14PolynomialTypeEEN3$_4D2Ev"(ptr noundef nonnull align 8 dereferenceable(32) %this) unnamed_addr #4 align 2 {
entry:
  %this.addr = alloca ptr, align 8
  store ptr %this, ptr %this.addr, align 8, !tbaa !32
  %this1 = load ptr, ptr %this.addr, align 8
  %0 = getelementptr inbounds nuw %class.anon.3, ptr %this1, i32 0, i32 0
  call void @_ZN8QuantLib28GaussianOrthogonalPolynomialD2Ev(ptr noundef nonnull align 8 dereferenceable(24) %0) #17
  ret void
}

; Function Attrs: mustprogress uwtable
define internal void @"_ZNSt14_Function_base13_Base_managerIZN8QuantLib14LsmBasisSystem15pathBasisSystemEmNS2_14PolynomialTypeEE3$_4E9_M_createIRKS4_EEvRSt9_Any_dataOT_St17integral_constantIbLb0EE"(ptr noundef nonnull align 8 dereferenceable(16) %__dest, ptr noundef nonnull align 8 dereferenceable(32) %__f) #0 align 2 {
entry:
  %__dest.addr = alloca ptr, align 8
  %__f.addr = alloca ptr, align 8
  store ptr %__dest, ptr %__dest.addr, align 8, !tbaa !32
  store ptr %__f, ptr %__f.addr, align 8, !tbaa !32
  %call = call noalias noundef nonnull ptr @_Znwm(i64 noundef 32) #21
  %0 = load ptr, ptr %__f.addr, align 8, !tbaa !32
  call void @"_ZZN8QuantLib14LsmBasisSystem15pathBasisSystemEmNS0_14PolynomialTypeEEN3$_4C2ERKS2_"(ptr noundef nonnull align 8 dereferenceable(32) %call, ptr noundef nonnull align 8 dereferenceable(32) %0) #17
  %1 = load ptr, ptr %__dest.addr, align 8, !tbaa !32
  %call1 = call noundef nonnull align 8 dereferenceable(8) ptr @"_ZNSt9_Any_data9_M_accessIPZN8QuantLib14LsmBasisSystem15pathBasisSystemEmNS2_14PolynomialTypeEE3$_4EERT_v"(ptr noundef nonnull align 8 dereferenceable(16) %1) #17
  store ptr %call, ptr %call1, align 8, !tbaa !32
  ret void
}

; Function Attrs: mustprogress nounwind uwtable
define linkonce_odr noundef ptr @_ZNKSt9_Any_data9_M_accessEv(ptr noundef nonnull align 8 dereferenceable(16) %this) #2 comdat align 2 {
entry:
  %this.addr = alloca ptr, align 8
  store ptr %this, ptr %this.addr, align 8, !tbaa !32
  %this1 = load ptr, ptr %this.addr, align 8
  %arrayidx = getelementptr inbounds [16 x i8], ptr %this1, i64 0, i64 0
  ret ptr %arrayidx
}

; Function Attrs: mustprogress nounwind uwtable
define internal void @"_ZNSt14_Function_base13_Base_managerIZN8QuantLib14LsmBasisSystem15pathBasisSystemEmNS2_14PolynomialTypeEE3$_4E10_M_destroyERSt9_Any_dataSt17integral_constantIbLb0EE"(ptr noundef nonnull align 8 dereferenceable(16) %__victim) #2 align 2 {
entry:
  %__victim.addr = alloca ptr, align 8
  store ptr %__victim, ptr %__victim.addr, align 8, !tbaa !32
  %0 = load ptr, ptr %__victim.addr, align 8, !tbaa !32
  %call = call noundef nonnull align 8 dereferenceable(8) ptr @"_ZNSt9_Any_data9_M_accessIPZN8QuantLib14LsmBasisSystem15pathBasisSystemEmNS2_14PolynomialTypeEE3$_4EERT_v"(ptr noundef nonnull align 8 dereferenceable(16) %0) #17
  %1 = load ptr, ptr %call, align 8, !tbaa !32
  %isnull = icmp eq ptr %1, null
  br i1 %isnull, label %delete.end, label %delete.notnull

delete.notnull:                                   ; preds = %entry
  call void @"_ZZN8QuantLib14LsmBasisSystem15pathBasisSystemEmNS0_14PolynomialTypeEEN3$_4D2Ev"(ptr noundef nonnull align 8 dereferenceable(32) %1) #17
  call void @_ZdlPvm(ptr noundef %1, i64 noundef 32) #20
  br label %delete.end

delete.end:                                       ; preds = %delete.notnull, %entry
  ret void
}

; Function Attrs: mustprogress uwtable
define internal void @"_ZNSt14_Function_base13_Base_managerIZN8QuantLib14LsmBasisSystem15pathBasisSystemEmNS2_14PolynomialTypeEE3$_4E15_M_init_functorIRKS4_EEvRSt9_Any_dataOT_"(ptr noundef nonnull align 8 dereferenceable(16) %__functor, ptr noundef nonnull align 8 dereferenceable(32) %__f) #0 align 2 {
entry:
  %__functor.addr = alloca ptr, align 8
  %__f.addr = alloca ptr, align 8
  store ptr %__functor, ptr %__functor.addr, align 8, !tbaa !32
  store ptr %__f, ptr %__f.addr, align 8, !tbaa !32
  %0 = load ptr, ptr %__functor.addr, align 8, !tbaa !32
  %1 = load ptr, ptr %__f.addr, align 8, !tbaa !32
  call void @"_ZNSt14_Function_base13_Base_managerIZN8QuantLib14LsmBasisSystem15pathBasisSystemEmNS2_14PolynomialTypeEE3$_4E9_M_createIRKS4_EEvRSt9_Any_dataOT_St17integral_constantIbLb0EE"(ptr noundef nonnull align 8 dereferenceable(16) %0, ptr noundef nonnull align 8 dereferenceable(32) %1)
  ret void
}

; Function Attrs: mustprogress nounwind uwtable
define internal noundef nonnull align 8 dereferenceable(8) ptr @"_ZNKSt9_Any_data9_M_accessIPZN8QuantLib14LsmBasisSystem15pathBasisSystemEmNS2_14PolynomialTypeEE3$_4EERKT_v"(ptr noundef nonnull align 8 dereferenceable(16) %this) #2 align 2 {
entry:
  %this.addr = alloca ptr, align 8
  store ptr %this, ptr %this.addr, align 8, !tbaa !32
  %this1 = load ptr, ptr %this.addr, align 8
  %call = call noundef ptr @_ZNKSt9_Any_data9_M_accessEv(ptr noundef nonnull align 8 dereferenceable(16) %this1) #17
  ret ptr %call
}

; Function Attrs: mustprogress nounwind uwtable
define linkonce_odr noundef ptr @_ZNSt9_Any_data9_M_accessEv(ptr noundef nonnull align 8 dereferenceable(16) %this) #2 comdat align 2 {
entry:
  %this.addr = alloca ptr, align 8
  store ptr %this, ptr %this.addr, align 8, !tbaa !32
  %this1 = load ptr, ptr %this.addr, align 8
  %arrayidx = getelementptr inbounds [16 x i8], ptr %this1, i64 0, i64 0
  ret ptr %arrayidx
}

; Function Attrs: mustprogress uwtable
define internal noundef zeroext i1 @"_ZNSt14_Function_base13_Base_managerIZN8QuantLib14LsmBasisSystem15pathBasisSystemEmNS2_14PolynomialTypeEE3$_4E10_M_managerERSt9_Any_dataRKS6_St18_Manager_operation"(ptr noundef nonnull align 8 dereferenceable(16) %__dest, ptr noundef nonnull align 8 dereferenceable(16) %__source, i32 noundef %__op) #0 align 2 {
entry:
  %__dest.addr = alloca ptr, align 8
  %__source.addr = alloca ptr, align 8
  %__op.addr = alloca i32, align 4
  store ptr %__dest, ptr %__dest.addr, align 8, !tbaa !32
  store ptr %__source, ptr %__source.addr, align 8, !tbaa !32
  store i32 %__op, ptr %__op.addr, align 4, !tbaa !152
  %0 = load i32, ptr %__op.addr, align 4, !tbaa !152
  switch i32 %0, label %sw.epilog [
    i32 0, label %sw.bb
    i32 1, label %sw.bb1
    i32 2, label %sw.bb4
    i32 3, label %sw.bb6
  ]

sw.bb:                                            ; preds = %entry
  %1 = load ptr, ptr %__dest.addr, align 8, !tbaa !32
  %call = call noundef nonnull align 8 dereferenceable(8) ptr @_ZNSt9_Any_data9_M_accessIPKSt9type_infoEERT_v(ptr noundef nonnull align 8 dereferenceable(16) %1) #17
  store ptr @"_ZTIZN8QuantLib14LsmBasisSystem15pathBasisSystemEmNS0_14PolynomialTypeEE3$_4", ptr %call, align 8, !tbaa !32
  br label %sw.epilog

sw.bb1:                                           ; preds = %entry
  %2 = load ptr, ptr %__source.addr, align 8, !tbaa !32
  %call2 = call noundef ptr @"_ZNSt14_Function_base13_Base_managerIZN8QuantLib14LsmBasisSystem15pathBasisSystemEmNS2_14PolynomialTypeEE3$_4E14_M_get_pointerERKSt9_Any_data"(ptr noundef nonnull align 8 dereferenceable(16) %2) #17
  %3 = load ptr, ptr %__dest.addr, align 8, !tbaa !32
  %call3 = call noundef nonnull align 8 dereferenceable(8) ptr @"_ZNSt9_Any_data9_M_accessIPZN8QuantLib14LsmBasisSystem15pathBasisSystemEmNS2_14PolynomialTypeEE3$_4EERT_v"(ptr noundef nonnull align 8 dereferenceable(16) %3) #17
  store ptr %call2, ptr %call3, align 8, !tbaa !32
  br label %sw.epilog

sw.bb4:                                           ; preds = %entry
  %4 = load ptr, ptr %__dest.addr, align 8, !tbaa !32
  %5 = load ptr, ptr %__source.addr, align 8, !tbaa !32
  %call5 = call noundef ptr @"_ZNSt14_Function_base13_Base_managerIZN8QuantLib14LsmBasisSystem15pathBasisSystemEmNS2_14PolynomialTypeEE3$_4E14_M_get_pointerERKSt9_Any_data"(ptr noundef nonnull align 8 dereferenceable(16) %5) #17
  call void @"_ZNSt14_Function_base13_Base_managerIZN8QuantLib14LsmBasisSystem15pathBasisSystemEmNS2_14PolynomialTypeEE3$_4E15_M_init_functorIRKS4_EEvRSt9_Any_dataOT_"(ptr noundef nonnull align 8 dereferenceable(16) %4, ptr noundef nonnull align 8 dereferenceable(32) %call5)
  br label %sw.epilog

sw.bb6:                                           ; preds = %entry
  %6 = load ptr, ptr %__dest.addr, align 8, !tbaa !32
  call void @"_ZNSt14_Function_base13_Base_managerIZN8QuantLib14LsmBasisSystem15pathBasisSystemEmNS2_14PolynomialTypeEE3$_4E10_M_destroyERSt9_Any_dataSt17integral_constantIbLb0EE"(ptr noundef nonnull align 8 dereferenceable(16) %6)
  br label %sw.epilog

sw.epilog:                                        ; preds = %entry, %sw.bb6, %sw.bb4, %sw.bb1, %sw.bb
  ret i1 false
}

; Function Attrs: mustprogress nounwind uwtable
define internal noundef nonnull align 8 dereferenceable(8) ptr @"_ZNSt9_Any_data9_M_accessIPZN8QuantLib14LsmBasisSystem15pathBasisSystemEmNS2_14PolynomialTypeEE3$_4EERT_v"(ptr noundef nonnull align 8 dereferenceable(16) %this) #2 align 2 {
entry:
  %this.addr = alloca ptr, align 8
  store ptr %this, ptr %this.addr, align 8, !tbaa !32
  %this1 = load ptr, ptr %this.addr, align 8
  %call = call noundef ptr @_ZNSt9_Any_data9_M_accessEv(ptr noundef nonnull align 8 dereferenceable(16) %this1) #17
  ret ptr %call
}

; Function Attrs: mustprogress nounwind uwtable
define internal noundef ptr @"_ZNSt14_Function_base13_Base_managerIZN8QuantLib14LsmBasisSystem15pathBasisSystemEmNS2_14PolynomialTypeEE3$_4E14_M_get_pointerERKSt9_Any_data"(ptr noundef nonnull align 8 dereferenceable(16) %__source) #2 align 2 {
entry:
  %__source.addr = alloca ptr, align 8
  store ptr %__source, ptr %__source.addr, align 8, !tbaa !32
  %0 = load ptr, ptr %__source.addr, align 8, !tbaa !32
  %call = call noundef nonnull align 8 dereferenceable(8) ptr @"_ZNKSt9_Any_data9_M_accessIPZN8QuantLib14LsmBasisSystem15pathBasisSystemEmNS2_14PolynomialTypeEE3$_4EERKT_v"(ptr noundef nonnull align 8 dereferenceable(16) %0) #17
  %1 = load ptr, ptr %call, align 8, !tbaa !32
  ret ptr %1
}

; Function Attrs: mustprogress nounwind uwtable
define linkonce_odr noundef nonnull align 8 dereferenceable(8) ptr @_ZNSt9_Any_data9_M_accessIPKSt9type_infoEERT_v(ptr noundef nonnull align 8 dereferenceable(16) %this) #2 comdat align 2 {
entry:
  %this.addr = alloca ptr, align 8
  store ptr %this, ptr %this.addr, align 8, !tbaa !32
  %this1 = load ptr, ptr %this.addr, align 8
  %call = call noundef ptr @_ZNSt9_Any_data9_M_accessEv(ptr noundef nonnull align 8 dereferenceable(16) %this1) #17
  ret ptr %call
}

; Function Attrs: mustprogress uwtable
define internal noundef zeroext i1 @"_ZNSt17_Function_handlerIFddEZN8QuantLib14LsmBasisSystem15pathBasisSystemEmNS2_14PolynomialTypeEE3$_4E10_M_managerERSt9_Any_dataRKS6_St18_Manager_operation"(ptr noundef nonnull align 8 dereferenceable(16) %__dest, ptr noundef nonnull align 8 dereferenceable(16) %__source, i32 noundef %__op) #0 align 2 {
entry:
  %__dest.addr = alloca ptr, align 8
  %__source.addr = alloca ptr, align 8
  %__op.addr = alloca i32, align 4
  store ptr %__dest, ptr %__dest.addr, align 8, !tbaa !32
  store ptr %__source, ptr %__source.addr, align 8, !tbaa !32
  store i32 %__op, ptr %__op.addr, align 4, !tbaa !152
  %0 = load i32, ptr %__op.addr, align 4, !tbaa !152
  switch i32 %0, label %sw.default [
    i32 0, label %sw.bb
    i32 1, label %sw.bb1
  ]

sw.bb:                                            ; preds = %entry
  %1 = load ptr, ptr %__dest.addr, align 8, !tbaa !32
  %call = call noundef nonnull align 8 dereferenceable(8) ptr @_ZNSt9_Any_data9_M_accessIPKSt9type_infoEERT_v(ptr noundef nonnull align 8 dereferenceable(16) %1) #17
  store ptr @"_ZTIZN8QuantLib14LsmBasisSystem15pathBasisSystemEmNS0_14PolynomialTypeEE3$_4", ptr %call, align 8, !tbaa !32
  br label %sw.epilog

sw.bb1:                                           ; preds = %entry
  %2 = load ptr, ptr %__source.addr, align 8, !tbaa !32
  %call2 = call noundef ptr @"_ZNSt14_Function_base13_Base_managerIZN8QuantLib14LsmBasisSystem15pathBasisSystemEmNS2_14PolynomialTypeEE3$_4E14_M_get_pointerERKSt9_Any_data"(ptr noundef nonnull align 8 dereferenceable(16) %2) #17
  %3 = load ptr, ptr %__dest.addr, align 8, !tbaa !32
  %call3 = call noundef nonnull align 8 dereferenceable(8) ptr @"_ZNSt9_Any_data9_M_accessIPZN8QuantLib14LsmBasisSystem15pathBasisSystemEmNS2_14PolynomialTypeEE3$_4EERT_v"(ptr noundef nonnull align 8 dereferenceable(16) %3) #17
  store ptr %call2, ptr %call3, align 8, !tbaa !32
  br label %sw.epilog

sw.default:                                       ; preds = %entry
  %4 = load ptr, ptr %__dest.addr, align 8, !tbaa !32
  %5 = load ptr, ptr %__source.addr, align 8, !tbaa !32
  %6 = load i32, ptr %__op.addr, align 4, !tbaa !152
  %call4 = call noundef zeroext i1 @"_ZNSt14_Function_base13_Base_managerIZN8QuantLib14LsmBasisSystem15pathBasisSystemEmNS2_14PolynomialTypeEE3$_4E10_M_managerERSt9_Any_dataRKS6_St18_Manager_operation"(ptr noundef nonnull align 8 dereferenceable(16) %4, ptr noundef nonnull align 8 dereferenceable(16) %5, i32 noundef %6)
  br label %sw.epilog

sw.epilog:                                        ; preds = %sw.default, %sw.bb1, %sw.bb
  ret i1 false
}